target datalayout = "e-m:e-p270:32:32-p271:32:32-p272:64:64-i64:64-i128:128-f80:128-n8:16:32:64-S128"
target triple = "x86_64-unknown-linux-gnu"

%struct.redisServer = type { i32, i64, ptr, ptr, ptr, i32, i32, i32, i32, i32, ptr, ptr, ptr, ptr, ptr, ptr, i32, i32, i64, i32, i32, i32, i32, ptr, i32, i32, [41 x i8], i32, i64, i32, i32, i32, ptr, ptr, i32, i32, i64, ptr, ptr, ptr, ptr, [2 x i32], i32, i32, i32, i32, i32, [16 x ptr], i32, ptr, ptr, i32, [8 x %struct.connListener], i32, %struct.connListener, ptr, ptr, ptr, ptr, ptr, ptr, ptr, ptr, ptr, ptr, i32, ptr, i32, ptr, [3 x %struct.pause_event], [256 x i8], ptr, i64, i32, i32, i32, i32, i64, i32, i32, i32, i32, i32, i64, i64, i64, i64, i64, i64, i64, i64, i64, double, i64, i64, i64, i64, i64, i64, i64, i64, i64, i64, i64, i64, i64, i64, i64, i64, i64, i64, i64, i64, double, i64, i64, i64, i64, i64, ptr, i64, i64, i64, %struct.malloc_stats, i64, i64, i64, i64, i64, i64, i64, i64, i64, i64, i64, i64, double, [4 x i64], i64, i64, i64, i64, i64, i64, i64, i64, i64, i64, [7 x %struct.anon], i64, i64, i64, i64, i64, i64, [4 x %struct.durationStats], i32, i32, i32, i32, i32, i32, i32, i32, i32, i32, i64, i32, i32, i32, i32, i64, i64, i32, i32, i32, i32, i32, ptr, [3 x %struct.clientBufferLimitsConfig], i32, i32, ptr, i32, i32, i32, i32, ptr, ptr, i32, i32, i64, i64, i64, i64, i64, i32, i32, ptr, i32, i32, i64, i64, i64, i64, i64, i32, i32, i64, i32, i32, i32, i32, i32, i32, i32, i32, ptr, i32, i64, i64, i64, i64, ptr, i32, ptr, i32, i32, i32, i64, i64, i64, i64, i32, i32, i32, i32, i32, i32, ptr, i32, i32, ptr, i32, i32, i32, [2 x i32], i32, %struct.redisOpArray, i32, ptr, i32, ptr, i32, i32, i32, i32, i32, i32, i32, [41 x i8], [41 x i8], i64, i64, i64, i64, i32, i32, ptr, i64, i64, i64, i32, i32, i32, i32, i32, i32, i32, i64, ptr, ptr, ptr, ptr, i32, i32, ptr, ptr, i32, i32, i64, i64, i64, ptr, i32, ptr, i64, i32, i32, i32, i64, i32, i32, i32, i32, ptr, i32, i32, [41 x i8], i64, i32, ptr, i32, i32, i64, i64, i32, i32, i32, i32, i32, i64, [3 x i32], i32, i32, i32, [9 x i32], ptr, ptr, i32, i64, ptr, ptr, i32, i32, i32, i32, i64, i64, i64, i64, i64, i64, i64, i64, i64, i64, i32, i32, i64, i64, i32, i64, i64, i64, i64, i64, ptr, ptr, i32, ptr, i32, i32, i32, i64, i64, ptr, ptr, i32, i32, i32, i32, i32, ptr, ptr, ptr, i32, i32, i32, i32, i32, i32, i32, i64, i32, i64, i32, i32, i32, i32, i32, i32, i32, i64, ptr, ptr, i64, ptr, i32, %struct.aclInfo, i32, i64, i32, i32, i32, %struct.redisTLSContextConfig, ptr, ptr, ptr, ptr, ptr, i64, i32, ptr, i32, i32, i32, i64, i32, ptr }
%struct.connListener = type { [16 x i32], i32, ptr, i32, i32, ptr, ptr }
%struct.pause_event = type { i32, i64 }
%struct.malloc_stats = type { i64, i64, i64, i64, i64 }
%struct.anon = type { i64, i64, [16 x i64], i32 }
%struct.durationStats = type { i64, i64, i64 }
%struct.clientBufferLimitsConfig = type { i64, i64, i64 }
%struct.redisOpArray = type { ptr, i32, i32 }
%struct.aclInfo = type { i64, i64, i64, i64 }
%struct.redisTLSContextConfig = type { ptr, ptr, ptr, ptr, ptr, ptr, ptr, ptr, ptr, ptr, ptr, ptr, i32, i32, i32, i32 }

@server = dso_local global %struct.redisServer zeroinitializer, align 8
@.str.6 = private unnamed_addr constant [18 x i8] c":signal-handler (\00", align 1
@.str.7 = private unnamed_addr constant [3 x i8] c") \00", align 1
@.str.8 = private unnamed_addr constant [2 x i8] c"\0A\00", align 1

; Function Attrs: nounwind uwtable
define dso_local void @serverLogRawFromHandler(i32 noundef %level, ptr noundef %msg) #0 {
entry:
  %level.addr = alloca i32, align 4
  %msg.addr = alloca ptr, align 8
  %fd = alloca i32, align 4
  %log_to_stdout = alloca i32, align 4
  %buf = alloca [64 x i8], align 16
  store i32 %level, ptr %level.addr, align 4
  store ptr %msg, ptr %msg.addr, align 8
  %0 = load ptr, ptr getelementptr inbounds (%struct.redisServer, ptr @server, i32 0, i32 250), align 8
  %arrayidx = getelementptr inbounds i8, ptr %0, i64 0
  %1 = load i8, ptr %arrayidx, align 1
  %conv = sext i8 %1 to i32
  %cmp = icmp eq i32 %conv, 0
  %conv1 = zext i1 %cmp to i32
  store i32 %conv1, ptr %log_to_stdout, align 4
  %2 = load i32, ptr %level.addr, align 4
  %and = and i32 %2, 255
  %3 = load i32, ptr getelementptr inbounds (%struct.redisServer, ptr @server, i32 0, i32 156), align 8
  %cmp2 = icmp slt i32 %and, %3
  br i1 %cmp2, label %if.then, label %lor.lhs.false

lor.lhs.false:                                    ; preds = %entry
  %4 = load i32, ptr %log_to_stdout, align 4
  %tobool = icmp ne i32 %4, 0
  br i1 %tobool, label %land.lhs.true, label %if.end

land.lhs.true:                                    ; preds = %lor.lhs.false
  %5 = load i32, ptr getelementptr inbounds (%struct.redisServer, ptr @server, i32 0, i32 176), align 4
  %tobool4 = icmp ne i32 %5, 0
  br i1 %tobool4, label %if.then, label %if.end

if.then:                                          ; preds = %land.lhs.true, %entry
  br label %if.end66

if.end:                                           ; preds = %land.lhs.true, %lor.lhs.false
  %6 = load i32, ptr %log_to_stdout, align 4
  %tobool5 = icmp ne i32 %6, 0
  br i1 %tobool5, label %cond.true, label %cond.false

cond.true:                                        ; preds = %if.end
  br label %cond.end

cond.false:                                       ; preds = %if.end
  %7 = load ptr, ptr getelementptr inbounds (%struct.redisServer, ptr @server, i32 0, i32 250), align 8
  %call = call i32 (ptr, i32, ...) @open64(ptr noundef %7, i32 noundef 1089, i32 noundef 420)
  br label %cond.end

cond.end:                                         ; preds = %cond.false, %cond.true
  %cond = phi i32 [ 1, %cond.true ], [ %call, %cond.false ]
  store i32 %cond, ptr %fd, align 4
  %8 = load i32, ptr %fd, align 4
  %cmp6 = icmp eq i32 %8, -1
  br i1 %cmp6, label %if.then8, label %if.end9

if.then8:                                         ; preds = %cond.end
  br label %if.end66

if.end9:                                          ; preds = %cond.end
  %9 = load i32, ptr %level.addr, align 4
  %and10 = and i32 %9, 1024
  %tobool11 = icmp ne i32 %and10, 0
  br i1 %tobool11, label %if.then12, label %if.else

if.then12:                                        ; preds = %if.end9
  %10 = load i32, ptr %fd, align 4
  %11 = load ptr, ptr %msg.addr, align 8
  %12 = load ptr, ptr %msg.addr, align 8
  %call13 = call i64 @strlen(ptr noundef %12) #14
  %call14 = call i64 @write(i32 noundef %10, ptr noundef %11, i64 noundef %call13)
  %cmp15 = icmp eq i64 %call14, -1
  br i1 %cmp15, label %if.then17, label %if.end18

if.then17:                                        ; preds = %if.then12
  br label %err

if.end18:                                         ; preds = %if.then12
  br label %if.end62

if.else:                                          ; preds = %if.end9
  %arraydecay = getelementptr inbounds [64 x i8], ptr %buf, i64 0, i64 0
  %call19 = call i32 @getpid() #13
  %conv20 = sext i32 %call19 to i64
  %call21 = call i32 @ll2string(ptr noundef %arraydecay, i64 noundef 64, i64 noundef %conv20)
  %13 = load i32, ptr %fd, align 4
  %arraydecay22 = getelementptr inbounds [64 x i8], ptr %buf, i64 0, i64 0
  %arraydecay23 = getelementptr inbounds [64 x i8], ptr %buf, i64 0, i64 0
  %call24 = call i64 @strlen(ptr noundef %arraydecay23) #14
  %call25 = call i64 @write(i32 noundef %13, ptr noundef %arraydecay22, i64 noundef %call24)
  %cmp26 = icmp eq i64 %call25, -1
  br i1 %cmp26, label %if.then28, label %if.end29

if.then28:                                        ; preds = %if.else
  br label %err

if.end29:                                         ; preds = %if.else
  %14 = load i32, ptr %fd, align 4
  %call30 = call i64 @write(i32 noundef %14, ptr noundef @.str.6, i64 noundef 17)
  %cmp31 = icmp eq i64 %call30, -1
  br i1 %cmp31, label %if.then33, label %if.end34

if.then33:                                        ; preds = %if.end29
  br label %err

if.end34:                                         ; preds = %if.end29
  %arraydecay35 = getelementptr inbounds [64 x i8], ptr %buf, i64 0, i64 0
  %call36 = call i64 @time(ptr noundef null) #13
  %call37 = call i32 @ll2string(ptr noundef %arraydecay35, i64 noundef 64, i64 noundef %call36)
  %15 = load i32, ptr %fd, align 4
  %arraydecay38 = getelementptr inbounds [64 x i8], ptr %buf, i64 0, i64 0
  %arraydecay39 = getelementptr inbounds [64 x i8], ptr %buf, i64 0, i64 0
  %call40 = call i64 @strlen(ptr noundef %arraydecay39) #14
  %call41 = call i64 @write(i32 noundef %15, ptr noundef %arraydecay38, i64 noundef %call40)
  %cmp42 = icmp eq i64 %call41, -1
  br i1 %cmp42, label %if.then44, label %if.end45

if.then44:                                        ; preds = %if.end34
  br label %err

if.end45:                                         ; preds = %if.end34
  %16 = load i32, ptr %fd, align 4
  %call46 = call i64 @write(i32 noundef %16, ptr noundef @.str.7, i64 noundef 2)
  %cmp47 = icmp eq i64 %call46, -1
  br i1 %cmp47, label %if.then49, label %if.end50

if.then49:                                        ; preds = %if.end45
  br label %err

if.end50:                                         ; preds = %if.end45
  %17 = load i32, ptr %fd, align 4
  %18 = load ptr, ptr %msg.addr, align 8
  %19 = load ptr, ptr %msg.addr, align 8
  %call51 = call i64 @strlen(ptr noundef %19) #14
  %call52 = call i64 @write(i32 noundef %17, ptr noundef %18, i64 noundef %call51)
  %cmp53 = icmp eq i64 %call52, -1
  br i1 %cmp53, label %if.then55, label %if.end56

if.then55:                                        ; preds = %if.end50
  br label %err

if.end56:                                         ; preds = %if.end50
  %20 = load i32, ptr %fd, align 4
  %call57 = call i64 @write(i32 noundef %20, ptr noundef @.str.8, i64 noundef 1)
  %cmp58 = icmp eq i64 %call57, -1
  br i1 %cmp58, label %if.then60, label %if.end61

if.then60:                                        ; preds = %if.end56
  br label %err

if.end61:                                         ; preds = %if.end56
  br label %if.end62

if.end62:                                         ; preds = %if.end61, %if.end18
  br label %err

err:                                              ; preds = %if.end62, %if.then60, %if.then55, %if.then49, %if.then44, %if.then33, %if.then28, %if.then17
  %21 = load i32, ptr %log_to_stdout, align 4
  %tobool63 = icmp ne i32 %21, 0
  br i1 %tobool63, label %if.end66, label %if.then64

if.then64:                                        ; preds = %err
  %22 = load i32, ptr %fd, align 4
  %call65 = call i32 @close(i32 noundef %22)
  br label %if.end66

if.end66:                                         ; preds = %if.then64, %err, %if.then8, %if.then
  ret void
}