; Function Attrs: nounwind uwtable
define dso_local void @serverLogRawFromHandler(i32 noundef %level, ptr nocapture noundef readonly %msg) local_unnamed_addr #0 {
entry:
  %buf = alloca [64 x i8], align 16
  %0 = load ptr, ptr getelementptr inbounds (%struct.redisServer, ptr @server, i64 0, i32 250), align 8
  %1 = load i8, ptr %0, align 1
  %cmp = icmp eq i8 %1, 0
  %and = and i32 %level, 255
  %2 = load i32, ptr getelementptr inbounds (%struct.redisServer, ptr @server, i64 0, i32 156), align 8
  %cmp2 = icmp slt i32 %and, %2
  br i1 %cmp2, label %if.end66, label %lor.lhs.false

lor.lhs.false:                                    ; preds = %entry
  %3 = load i32, ptr getelementptr inbounds (%struct.redisServer, ptr @server, i64 0, i32 176), align 4
  %tobool4 = icmp ne i32 %3, 0
  %or.cond = select i1 %cmp, i1 %tobool4, i1 false
  br i1 %or.cond, label %if.end66, label %if.end

if.end:                                           ; preds = %lor.lhs.false
  br i1 %cmp, label %if.end9, label %cond.end

cond.end:                                         ; preds = %if.end
  %call = tail call i32 (ptr, i32, ...) @open64(ptr noundef nonnull %0, i32 noundef 1089, i32 noundef 420) #38
  %cmp6 = icmp eq i32 %call, -1
  br i1 %cmp6, label %if.end66, label %if.end9

if.end9:                                          ; preds = %if.end, %cond.end
  %cond17 = phi i32 [ %call, %cond.end ], [ 1, %if.end ]
  %and10 = and i32 %level, 1024
  %tobool11.not = icmp eq i32 %and10, 0
  br i1 %tobool11.not, label %if.else, label %if.then12

if.then12:                                        ; preds = %if.end9
  %call13 = tail call i64 @strlen(ptr noundef nonnull dereferenceable(1) %msg) #39
  %call14 = tail call i64 @write(i32 noundef %cond17, ptr noundef %msg, i64 noundef %call13) #38
  br label %err

if.else:                                          ; preds = %if.end9
  %call19 = tail call i32 @getpid() #38
  %conv20 = sext i32 %call19 to i64
  %call21 = call i32 @ll2string(ptr noundef nonnull %buf, i64 noundef 64, i64 noundef %conv20) #38
  %call24 = call i64 @strlen(ptr noundef nonnull dereferenceable(1) %buf) #39
  %call25 = call i64 @write(i32 noundef %cond17, ptr noundef nonnull %buf, i64 noundef %call24) #38
  %cmp26 = icmp eq i64 %call25, -1
  br i1 %cmp26, label %err, label %if.end29

if.end29:                                         ; preds = %if.else
  %call30 = call i64 @write(i32 noundef %cond17, ptr noundef nonnull @.str.6, i64 noundef 17) #38
  %cmp31 = icmp eq i64 %call30, -1
  br i1 %cmp31, label %err, label %if.end34

if.end34:                                         ; preds = %if.end29
  %call36 = call i64 @time(ptr noundef null) #38
  %call37 = call i32 @ll2string(ptr noundef nonnull %buf, i64 noundef 64, i64 noundef %call36) #38
  %call40 = call i64 @strlen(ptr noundef nonnull dereferenceable(1) %buf) #39
  %call41 = call i64 @write(i32 noundef %cond17, ptr noundef nonnull %buf, i64 noundef %call40) #38
  %cmp42 = icmp eq i64 %call41, -1
  br i1 %cmp42, label %err, label %if.end45

if.end45:                                         ; preds = %if.end34
  %call46 = call i64 @write(i32 noundef %cond17, ptr noundef nonnull @.str.7, i64 noundef 2) #38
  %cmp47 = icmp eq i64 %call46, -1
  br i1 %cmp47, label %err, label %if.end50

if.end50:                                         ; preds = %if.end45
  %call51 = call i64 @strlen(ptr noundef nonnull dereferenceable(1) %msg) #39
  %call52 = call i64 @write(i32 noundef %cond17, ptr noundef %msg, i64 noundef %call51) #38
  %cmp53 = icmp eq i64 %call52, -1
  br i1 %cmp53, label %err, label %if.end56

if.end56:                                         ; preds = %if.end50
  %call57 = call i64 @write(i32 noundef %cond17, ptr noundef nonnull @.str.8, i64 noundef 1) #38
  br label %err

err:                                              ; preds = %if.end56, %if.then12, %if.end50, %if.end45, %if.end34, %if.end29, %if.else
  br i1 %cmp, label %if.end66, label %if.then64

if.then64:                                        ; preds = %err
  %call65 = call i32 @close(i32 noundef %cond17) #38
  br label %if.end66

if.end66:                                         ; preds = %cond.end, %entry, %lor.lhs.false, %if.then64, %err
  ret void
}